target datalayout = "e-m:e-p270:32:32-p271:32:32-p272:64:64-i64:64-i128:128-f80:128-n8:16:32:64-S128"
target triple = "x86_64-pc-linux-gnu"

%"class.std::__1::basic_string" = type { %"class.std::__1::__compressed_pair" }
%"class.std::__1::__compressed_pair" = type { %"struct.std::__1::__compressed_pair_elem" }
%"struct.std::__1::__compressed_pair_elem" = type { %"struct.std::__1::basic_string<char>::__rep" }
%"struct.std::__1::basic_string<char>::__rep" = type { %union.anon }
%union.anon = type { %"struct.std::__1::basic_string<char>::__long" }
%"struct.std::__1::basic_string<char>::__long" = type { %struct.anon.0, i64, ptr }
%struct.anon.0 = type { i64 }
%"class.std::__1::vector" = type { ptr, ptr, %"class.std::__1::__compressed_pair.55" }
%"class.std::__1::__compressed_pair.55" = type { %"struct.std::__1::__compressed_pair_elem.56" }
%"struct.std::__1::__compressed_pair_elem.56" = type { ptr }
%"class.std::__1::vector<std::__1::string>::__destroy_vector" = type { ptr }
%"class.mitsuba::filesystem::path" = type <{ %"class.std::__1::vector", i8, [7 x i8] }>
%class.anon.199 = type { %"class.mitsuba::filesystem::path" }

; Function Attrs: mustprogress nounwind uwtable
define linkonce_odr hidden void @_ZNSt3__124__libcpp_operator_deleteB8ne190000IJPvEEEvDpT_(ptr noundef %0) #0 comdat {
  %2 = alloca ptr, align 8
  store ptr %0, ptr %2, align 8
  %3 = load ptr, ptr %2, align 8
  call void @_ZdlPv(ptr noundef %3) #26
  ret void
}

; Function Attrs: mustprogress nounwind uwtable
define linkonce_odr hidden void @_ZNSt3__124__libcpp_operator_deleteB8ne190000IJPvSt11align_val_tEEEvDpT_(ptr noundef %0, i64 noundef %1) #0 comdat {
  %3 = alloca ptr, align 8
  %4 = alloca i64, align 8
  store ptr %0, ptr %3, align 8
  store i64 %1, ptr %4, align 8
  %5 = load ptr, ptr %3, align 8
  %6 = load i64, ptr %4, align 8
  call void @_ZdlPvSt11align_val_t(ptr noundef %5, i64 noundef %6) #26
  ret void
}

; Function Attrs: mustprogress uwtable
define linkonce_odr hidden void @_ZNSt3__127__do_deallocate_handle_sizeB8ne190000IJEEEvPvmDpT_(ptr noundef %0, i64 noundef %1) #1 comdat {
  %3 = alloca ptr, align 8
  %4 = alloca i64, align 8
  store ptr %0, ptr %3, align 8
  store i64 %1, ptr %4, align 8
  %5 = load ptr, ptr %3, align 8
  call void @_ZNSt3__124__libcpp_operator_deleteB8ne190000IJPvEEEvDpT_(ptr noundef %5)
  ret void
}

; Function Attrs: mustprogress uwtable
define linkonce_odr hidden void @_ZNSt3__127__do_deallocate_handle_sizeB8ne190000IJSt11align_val_tEEEvPvmDpT_(ptr noundef %0, i64 noundef %1, i64 noundef %2) #1 comdat {
  %4 = alloca ptr, align 8
  %5 = alloca i64, align 8
  %6 = alloca i64, align 8
  store ptr %0, ptr %4, align 8
  store i64 %1, ptr %5, align 8
  store i64 %2, ptr %6, align 8
  %7 = load ptr, ptr %4, align 8
  %8 = load i64, ptr %6, align 8
  call void @_ZNSt3__124__libcpp_operator_deleteB8ne190000IJPvSt11align_val_tEEEvDpT_(ptr noundef %7, i64 noundef %8)
  ret void
}

; Function Attrs: mustprogress nounwind uwtable
define linkonce_odr hidden noundef zeroext i1 @_ZNSt3__124__is_overaligned_for_newB8ne190000Em(i64 noundef %0) #0 comdat {
  %2 = alloca i64, align 8
  store i64 %0, ptr %2, align 8
  %3 = load i64, ptr %2, align 8
  %4 = icmp ugt i64 %3, 16
  ret i1 %4
}

; Function Attrs: mustprogress nounwind uwtable
define linkonce_odr hidden noundef nonnull align 8 dereferenceable(8) ptr @_ZNKSt3__122__compressed_pair_elemIPNS_12basic_stringIcNS_11char_traitsIcEENS_9allocatorIcEEEELi0ELb0EE5__getB8ne190000Ev(ptr noundef nonnull align 8 dereferenceable(8) %0) #0 comdat align 2 {
  %2 = alloca ptr, align 8
  store ptr %0, ptr %2, align 8
  %3 = load ptr, ptr %2, align 8
  %4 = getelementptr inbounds %"struct.std::__1::__compressed_pair_elem.56", ptr %3, i32 0, i32 0
  ret ptr %4
}

; Function Attrs: mustprogress nounwind uwtable
define linkonce_odr hidden void @_ZNSt3__19allocatorINS_12basic_stringIcNS_11char_traitsIcEENS0_IcEEEEE7destroyB8ne190000EPS5_(ptr noundef nonnull align 1 dereferenceable(1) %0, ptr noundef %1) #0 comdat align 2 {
  %3 = alloca ptr, align 8
  %4 = alloca ptr, align 8
  store ptr %0, ptr %3, align 8
  store ptr %1, ptr %4, align 8
  %5 = load ptr, ptr %4, align 8
  call void @_ZNSt3__112basic_stringIcNS_11char_traitsIcEENS_9allocatorIcEEED1Ev(ptr noundef nonnull align 8 dereferenceable(24) %5) #23
  ret void
}

; Function Attrs: mustprogress uwtable
define linkonce_odr hidden void @_ZNSt3__119__libcpp_deallocateB8ne190000EPvmm(ptr noundef %0, i64 noundef %1, i64 noundef %2) #1 comdat {
  %4 = alloca ptr, align 8
  %5 = alloca i64, align 8
  %6 = alloca i64, align 8
  %7 = alloca i64, align 8
  store ptr %0, ptr %4, align 8
  store i64 %1, ptr %5, align 8
  store i64 %2, ptr %6, align 8
  %8 = load i64, ptr %6, align 8
  %9 = call noundef zeroext i1 @_ZNSt3__124__is_overaligned_for_newB8ne190000Em(i64 noundef %8) #23
  br i1 %9, label %10, label %15

10:                                               ; preds = %3
  %11 = load i64, ptr %6, align 8
  store i64 %11, ptr %7, align 8
  %12 = load ptr, ptr %4, align 8
  %13 = load i64, ptr %5, align 8
  %14 = load i64, ptr %7, align 8
  call void @_ZNSt3__127__do_deallocate_handle_sizeB8ne190000IJSt11align_val_tEEEvPvmDpT_(ptr noundef %12, i64 noundef %13, i64 noundef %14)
  br label %18

15:                                               ; preds = %3
  %16 = load ptr, ptr %4, align 8
  %17 = load i64, ptr %5, align 8
  call void @_ZNSt3__127__do_deallocate_handle_sizeB8ne190000IJEEEvPvmDpT_(ptr noundef %16, i64 noundef %17)
  br label %18

18:                                               ; preds = %15, %10
  ret void
}

; Function Attrs: mustprogress nounwind uwtable
define linkonce_odr hidden noundef nonnull align 8 dereferenceable(8) ptr @_ZNKSt3__117__compressed_pairIPNS_12basic_stringIcNS_11char_traitsIcEENS_9allocatorIcEEEENS4_IS6_EEE5firstB8ne190000Ev(ptr noundef nonnull align 8 dereferenceable(8) %0) #0 comdat align 2 {
  %2 = alloca ptr, align 8
  store ptr %0, ptr %2, align 8
  %3 = load ptr, ptr %2, align 8
  %4 = call noundef nonnull align 8 dereferenceable(8) ptr @_ZNKSt3__122__compressed_pair_elemIPNS_12basic_stringIcNS_11char_traitsIcEENS_9allocatorIcEEEELi0ELb0EE5__getB8ne190000Ev(ptr noundef nonnull align 8 dereferenceable(8) %3) #23
  ret ptr %4
}

; Function Attrs: mustprogress nounwind uwtable
define linkonce_odr hidden noundef nonnull align 1 dereferenceable(1) ptr @_ZNSt3__122__compressed_pair_elemINS_9allocatorINS_12basic_stringIcNS_11char_traitsIcEENS1_IcEEEEEELi1ELb1EE5__getB8ne190000Ev(ptr noundef nonnull align 1 dereferenceable(1) %0) #0 comdat align 2 {
  %2 = alloca ptr, align 8
  store ptr %0, ptr %2, align 8
  %3 = load ptr, ptr %2, align 8
  ret ptr %3
}

; Function Attrs: mustprogress uwtable
define linkonce_odr hidden void @_ZNSt3__116allocator_traitsINS_9allocatorINS_12basic_stringIcNS_11char_traitsIcEENS1_IcEEEEEEE7destroyB8ne190000IS6_TnNS_9enable_ifIXsr13__has_destroyIS7_PT_EE5valueEiE4typeELi0EEEvRS7_SC_(ptr noundef nonnull align 1 dereferenceable(1) %0, ptr noundef %1) #1 comdat align 2 {
  %3 = alloca ptr, align 8
  %4 = alloca ptr, align 8
  store ptr %0, ptr %3, align 8
  store ptr %1, ptr %4, align 8
  %5 = load ptr, ptr %3, align 8
  %6 = load ptr, ptr %4, align 8
  call void @_ZNSt3__19allocatorINS_12basic_stringIcNS_11char_traitsIcEENS0_IcEEEEE7destroyB8ne190000EPS5_(ptr noundef nonnull align 1 dereferenceable(1) %5, ptr noundef %6)
  ret void
}

; Function Attrs: mustprogress nounwind uwtable
define linkonce_odr hidden noundef ptr @_ZNSt3__112__to_addressB8ne190000INS_12basic_stringIcNS_11char_traitsIcEENS_9allocatorIcEEEEEEPT_S8_(ptr noundef %0) #0 comdat {
  %2 = alloca ptr, align 8
  store ptr %0, ptr %2, align 8
  %3 = load ptr, ptr %2, align 8
  ret ptr %3
}

; Function Attrs: mustprogress nounwind uwtable
define linkonce_odr hidden void @_ZNSt3__19allocatorINS_12basic_stringIcNS_11char_traitsIcEENS0_IcEEEEE10deallocateB8ne190000EPS5_m(ptr noundef nonnull align 1 dereferenceable(1) %0, ptr noundef %1, i64 noundef %2) #0 comdat align 2 personality ptr @__gxx_personality_v0 {
  %4 = alloca ptr, align 8
  %5 = alloca ptr, align 8
  %6 = alloca i64, align 8
  store ptr %0, ptr %4, align 8
  store ptr %1, ptr %5, align 8
  store i64 %2, ptr %6, align 8
  %7 = load ptr, ptr %5, align 8
  %8 = load i64, ptr %6, align 8
  %9 = mul i64 %8, 24
  invoke void @_ZNSt3__119__libcpp_deallocateB8ne190000EPvmm(ptr noundef %7, i64 noundef %9, i64 noundef 8)
          to label %10 unwind label %11

10:                                               ; preds = %3
  ret void

11:                                               ; preds = %3
  %12 = landingpad { ptr, i32 }
          catch ptr null
  %13 = extractvalue { ptr, i32 } %12, 0
  call void @__clang_call_terminate(ptr %13) #24
  unreachable
}

; Function Attrs: mustprogress nounwind uwtable
define linkonce_odr hidden noundef nonnull align 8 dereferenceable(8) ptr @_ZNKSt3__16vectorINS_12basic_stringIcNS_11char_traitsIcEENS_9allocatorIcEEEENS4_IS6_EEE9__end_capB8ne190000Ev(ptr noundef nonnull align 8 dereferenceable(24) %0) #0 comdat align 2 {
  %2 = alloca ptr, align 8
  store ptr %0, ptr %2, align 8
  %3 = load ptr, ptr %2, align 8
  %4 = getelementptr inbounds %"class.std::__1::vector", ptr %3, i32 0, i32 2
  %5 = call noundef nonnull align 8 dereferenceable(8) ptr @_ZNKSt3__117__compressed_pairIPNS_12basic_stringIcNS_11char_traitsIcEENS_9allocatorIcEEEENS4_IS6_EEE5firstB8ne190000Ev(ptr noundef nonnull align 8 dereferenceable(8) %4) #23
  ret ptr %5
}

; Function Attrs: mustprogress nounwind uwtable
define linkonce_odr hidden noundef nonnull align 1 dereferenceable(1) ptr @_ZNSt3__117__compressed_pairIPNS_12basic_stringIcNS_11char_traitsIcEENS_9allocatorIcEEEENS4_IS6_EEE6secondB8ne190000Ev(ptr noundef nonnull align 8 dereferenceable(8) %0) #0 comdat align 2 {
  %2 = alloca ptr, align 8
  store ptr %0, ptr %2, align 8
  %3 = load ptr, ptr %2, align 8
  %4 = call noundef nonnull align 1 dereferenceable(1) ptr @_ZNSt3__122__compressed_pair_elemINS_9allocatorINS_12basic_stringIcNS_11char_traitsIcEENS1_IcEEEEEELi1ELb1EE5__getB8ne190000Ev(ptr noundef nonnull align 1 dereferenceable(1) %3) #23
  ret ptr %4
}

; Function Attrs: mustprogress nounwind uwtable
define linkonce_odr hidden void @_ZNSt3__16vectorINS_12basic_stringIcNS_11char_traitsIcEENS_9allocatorIcEEEENS4_IS6_EEE22__base_destruct_at_endB8ne190000EPS6_(ptr noundef nonnull align 8 dereferenceable(24) %0, ptr noundef %1) #0 comdat align 2 personality ptr @__gxx_personality_v0 {
  %3 = alloca ptr, align 8
  %4 = alloca ptr, align 8
  %5 = alloca ptr, align 8
  store ptr %0, ptr %3, align 8
  store ptr %1, ptr %4, align 8
  %6 = load ptr, ptr %3, align 8
  %7 = getelementptr inbounds %"class.std::__1::vector", ptr %6, i32 0, i32 1
  %8 = load ptr, ptr %7, align 8
  store ptr %8, ptr %5, align 8
  br label %9

9:                                                ; preds = %18, %2
  %10 = load ptr, ptr %4, align 8
  %11 = load ptr, ptr %5, align 8
  %12 = icmp ne ptr %10, %11
  br i1 %12, label %13, label %19

13:                                               ; preds = %9
  %14 = call noundef nonnull align 1 dereferenceable(1) ptr @_ZNSt3__16vectorINS_12basic_stringIcNS_11char_traitsIcEENS_9allocatorIcEEEENS4_IS6_EEE7__allocB8ne190000Ev(ptr noundef nonnull align 8 dereferenceable(24) %6) #23
  %15 = load ptr, ptr %5, align 8
  %16 = getelementptr inbounds %"class.std::__1::basic_string", ptr %15, i32 -1
  store ptr %16, ptr %5, align 8
  %17 = call noundef ptr @_ZNSt3__112__to_addressB8ne190000INS_12basic_stringIcNS_11char_traitsIcEENS_9allocatorIcEEEEEEPT_S8_(ptr noundef %16) #23
  invoke void @_ZNSt3__116allocator_traitsINS_9allocatorINS_12basic_stringIcNS_11char_traitsIcEENS1_IcEEEEEEE7destroyB8ne190000IS6_TnNS_9enable_ifIXsr13__has_destroyIS7_PT_EE5valueEiE4typeELi0EEEvRS7_SC_(ptr noundef nonnull align 1 dereferenceable(1) %14, ptr noundef %17)
          to label %18 unwind label %22

18:                                               ; preds = %13
  br label %9, !llvm.loop !35

19:                                               ; preds = %9
  %20 = load ptr, ptr %4, align 8
  %21 = getelementptr inbounds %"class.std::__1::vector", ptr %6, i32 0, i32 1
  store ptr %20, ptr %21, align 8
  ret void

22:                                               ; preds = %13
  %23 = landingpad { ptr, i32 }
          catch ptr null
  %24 = extractvalue { ptr, i32 } %23, 0
  call void @__clang_call_terminate(ptr %24) #24
  unreachable
}

; Function Attrs: mustprogress nounwind uwtable
define linkonce_odr hidden void @_ZNSt3__116allocator_traitsINS_9allocatorINS_12basic_stringIcNS_11char_traitsIcEENS1_IcEEEEEEE10deallocateB8ne190000ERS7_PS6_m(ptr noundef nonnull align 1 dereferenceable(1) %0, ptr noundef %1, i64 noundef %2) #0 comdat align 2 {
  %4 = alloca ptr, align 8
  %5 = alloca ptr, align 8
  %6 = alloca i64, align 8
  store ptr %0, ptr %4, align 8
  store ptr %1, ptr %5, align 8
  store i64 %2, ptr %6, align 8
  %7 = load ptr, ptr %4, align 8
  %8 = load ptr, ptr %5, align 8
  %9 = load i64, ptr %6, align 8
  call void @_ZNSt3__19allocatorINS_12basic_stringIcNS_11char_traitsIcEENS0_IcEEEEE10deallocateB8ne190000EPS5_m(ptr noundef nonnull align 1 dereferenceable(1) %7, ptr noundef %8, i64 noundef %9) #23
  ret void
}

; Function Attrs: mustprogress nounwind uwtable
define linkonce_odr hidden noundef i64 @_ZNKSt3__16vectorINS_12basic_stringIcNS_11char_traitsIcEENS_9allocatorIcEEEENS4_IS6_EEE8capacityB8ne190000Ev(ptr noundef nonnull align 8 dereferenceable(24) %0) #0 comdat align 2 {
  %2 = alloca ptr, align 8
  store ptr %0, ptr %2, align 8
  %3 = load ptr, ptr %2, align 8
  %4 = call noundef nonnull align 8 dereferenceable(8) ptr @_ZNKSt3__16vectorINS_12basic_stringIcNS_11char_traitsIcEENS_9allocatorIcEEEENS4_IS6_EEE9__end_capB8ne190000Ev(ptr noundef nonnull align 8 dereferenceable(24) %3) #23
  %5 = load ptr, ptr %4, align 8
  %6 = getelementptr inbounds %"class.std::__1::vector", ptr %3, i32 0, i32 0
  %7 = load ptr, ptr %6, align 8
  %8 = ptrtoint ptr %5 to i64
  %9 = ptrtoint ptr %7 to i64
  %10 = sub i64 %8, %9
  %11 = sdiv exact i64 %10, 24
  ret i64 %11
}

; Function Attrs: mustprogress nounwind uwtable
define linkonce_odr hidden noundef nonnull align 1 dereferenceable(1) ptr @_ZNSt3__16vectorINS_12basic_stringIcNS_11char_traitsIcEENS_9allocatorIcEEEENS4_IS6_EEE7__allocB8ne190000Ev(ptr noundef nonnull align 8 dereferenceable(24) %0) #0 comdat align 2 {
  %2 = alloca ptr, align 8
  store ptr %0, ptr %2, align 8
  %3 = load ptr, ptr %2, align 8
  %4 = getelementptr inbounds %"class.std::__1::vector", ptr %3, i32 0, i32 2
  %5 = call noundef nonnull align 1 dereferenceable(1) ptr @_ZNSt3__117__compressed_pairIPNS_12basic_stringIcNS_11char_traitsIcEENS_9allocatorIcEEEENS4_IS6_EEE6secondB8ne190000Ev(ptr noundef nonnull align 8 dereferenceable(8) %4) #23
  ret ptr %5
}

; Function Attrs: mustprogress nounwind uwtable
define linkonce_odr hidden void @_ZNKSt3__16vectorINS_12basic_stringIcNS_11char_traitsIcEENS_9allocatorIcEEEENS4_IS6_EEE17__annotate_deleteB8ne190000Ev(ptr noundef nonnull align 8 dereferenceable(24) %0) #0 comdat align 2 {
  %2 = alloca ptr, align 8
  store ptr %0, ptr %2, align 8
  ret void
}

; Function Attrs: mustprogress nounwind uwtable
define linkonce_odr hidden void @_ZNSt3__16vectorINS_12basic_stringIcNS_11char_traitsIcEENS_9allocatorIcEEEENS4_IS6_EEE7__clearB8ne190000Ev(ptr noundef nonnull align 8 dereferenceable(24) %0) #0 comdat align 2 {
  %2 = alloca ptr, align 8
  store ptr %0, ptr %2, align 8
  %3 = load ptr, ptr %2, align 8
  %4 = getelementptr inbounds %"class.std::__1::vector", ptr %3, i32 0, i32 0
  %5 = load ptr, ptr %4, align 8
  call void @_ZNSt3__16vectorINS_12basic_stringIcNS_11char_traitsIcEENS_9allocatorIcEEEENS4_IS6_EEE22__base_destruct_at_endB8ne190000EPS6_(ptr noundef nonnull align 8 dereferenceable(24) %3, ptr noundef %5) #23
  ret void
}

; Function Attrs: noreturn nounwind uwtable
define linkonce_odr hidden void @__clang_call_terminate(ptr noundef %0) #8 comdat {
  %2 = call ptr @__cxa_begin_catch(ptr %0) #23
  call void @_ZSt9terminatev() #24
  unreachable
}

; Function Attrs: mustprogress nounwind uwtable
define linkonce_odr hidden void @_ZNSt3__16vectorINS_12basic_stringIcNS_11char_traitsIcEENS_9allocatorIcEEEENS4_IS6_EEE16__destroy_vectorclB8ne190000Ev(ptr noundef nonnull align 8 dereferenceable(8) %0) #0 comdat align 2 {
  %2 = alloca ptr, align 8
  store ptr %0, ptr %2, align 8
  %3 = load ptr, ptr %2, align 8
  %4 = getelementptr inbounds %"class.std::__1::vector<std::__1::string>::__destroy_vector", ptr %3, i32 0, i32 0
  %5 = load ptr, ptr %4, align 8
  %6 = getelementptr inbounds %"class.std::__1::vector", ptr %5, i32 0, i32 0
  %7 = load ptr, ptr %6, align 8
  %8 = icmp ne ptr %7, null
  br i1 %8, label %9, label %24

9:                                                ; preds = %1
  %10 = getelementptr inbounds %"class.std::__1::vector<std::__1::string>::__destroy_vector", ptr %3, i32 0, i32 0
  %11 = load ptr, ptr %10, align 8
  call void @_ZNSt3__16vectorINS_12basic_stringIcNS_11char_traitsIcEENS_9allocatorIcEEEENS4_IS6_EEE7__clearB8ne190000Ev(ptr noundef nonnull align 8 dereferenceable(24) %11) #23
  %12 = getelementptr inbounds %"class.std::__1::vector<std::__1::string>::__destroy_vector", ptr %3, i32 0, i32 0
  %13 = load ptr, ptr %12, align 8
  call void @_ZNKSt3__16vectorINS_12basic_stringIcNS_11char_traitsIcEENS_9allocatorIcEEEENS4_IS6_EEE17__annotate_deleteB8ne190000Ev(ptr noundef nonnull align 8 dereferenceable(24) %13) #23
  %14 = getelementptr inbounds %"class.std::__1::vector<std::__1::string>::__destroy_vector", ptr %3, i32 0, i32 0
  %15 = load ptr, ptr %14, align 8
  %16 = call noundef nonnull align 1 dereferenceable(1) ptr @_ZNSt3__16vectorINS_12basic_stringIcNS_11char_traitsIcEENS_9allocatorIcEEEENS4_IS6_EEE7__allocB8ne190000Ev(ptr noundef nonnull align 8 dereferenceable(24) %15) #23
  %17 = getelementptr inbounds %"class.std::__1::vector<std::__1::string>::__destroy_vector", ptr %3, i32 0, i32 0
  %18 = load ptr, ptr %17, align 8
  %19 = getelementptr inbounds %"class.std::__1::vector", ptr %18, i32 0, i32 0
  %20 = load ptr, ptr %19, align 8
  %21 = getelementptr inbounds %"class.std::__1::vector<std::__1::string>::__destroy_vector", ptr %3, i32 0, i32 0
  %22 = load ptr, ptr %21, align 8
  %23 = call noundef i64 @_ZNKSt3__16vectorINS_12basic_stringIcNS_11char_traitsIcEENS_9allocatorIcEEEENS4_IS6_EEE8capacityB8ne190000Ev(ptr noundef nonnull align 8 dereferenceable(24) %22) #23
  call void @_ZNSt3__116allocator_traitsINS_9allocatorINS_12basic_stringIcNS_11char_traitsIcEENS1_IcEEEEEEE10deallocateB8ne190000ERS7_PS6_m(ptr noundef nonnull align 1 dereferenceable(1) %16, ptr noundef %20, i64 noundef %23) #23
  br label %24

24:                                               ; preds = %9, %1
  ret void
}

; Function Attrs: mustprogress nounwind uwtable
define linkonce_odr hidden void @_ZNSt3__16vectorINS_12basic_stringIcNS_11char_traitsIcEENS_9allocatorIcEEEENS4_IS6_EEE16__destroy_vectorC2B8ne190000ERS8_(ptr noundef nonnull align 8 dereferenceable(8) %0, ptr noundef nonnull align 8 dereferenceable(24) %1) unnamed_addr #0 comdat align 2 {
  %3 = alloca ptr, align 8
  %4 = alloca ptr, align 8
  store ptr %0, ptr %3, align 8
  store ptr %1, ptr %4, align 8
  %5 = load ptr, ptr %3, align 8
  %6 = getelementptr inbounds %"class.std::__1::vector<std::__1::string>::__destroy_vector", ptr %5, i32 0, i32 0
  %7 = load ptr, ptr %4, align 8
  store ptr %7, ptr %6, align 8
  ret void
}

; Function Attrs: mustprogress nounwind uwtable
define linkonce_odr hidden void @_ZNSt3__16vectorINS_12basic_stringIcNS_11char_traitsIcEENS_9allocatorIcEEEENS4_IS6_EEED2B8ne190000Ev(ptr noundef nonnull align 8 dereferenceable(24) %0) unnamed_addr #0 comdat align 2 personality ptr @__gxx_personality_v0 {
  %2 = alloca ptr, align 8
  %3 = alloca %"class.std::__1::vector<std::__1::string>::__destroy_vector", align 8
  store ptr %0, ptr %2, align 8
  %4 = load ptr, ptr %2, align 8
  invoke void @_ZNSt3__16vectorINS_12basic_stringIcNS_11char_traitsIcEENS_9allocatorIcEEEENS4_IS6_EEE16__destroy_vectorC2B8ne190000ERS8_(ptr noundef nonnull align 8 dereferenceable(8) %3, ptr noundef nonnull align 8 dereferenceable(24) %4)
          to label %5 unwind label %6

5:                                                ; preds = %1
  call void @_ZNSt3__16vectorINS_12basic_stringIcNS_11char_traitsIcEENS_9allocatorIcEEEENS4_IS6_EEE16__destroy_vectorclB8ne190000Ev(ptr noundef nonnull align 8 dereferenceable(8) %3)
  ret void

6:                                                ; preds = %1
  %7 = landingpad { ptr, i32 }
          catch ptr null
  %8 = extractvalue { ptr, i32 } %7, 0
  call void @__clang_call_terminate(ptr %8) #24
  unreachable
}

; Function Attrs: mustprogress nounwind uwtable
define linkonce_odr void @_ZN7mitsuba10filesystem4pathD2Ev(ptr noundef nonnull align 8 dereferenceable(25) %0) unnamed_addr #0 comdat align 2 {
  %2 = alloca ptr, align 8
  store ptr %0, ptr %2, align 8
  %3 = load ptr, ptr %2, align 8
  %4 = getelementptr inbounds %"class.mitsuba::filesystem::path", ptr %3, i32 0, i32 0
  call void @_ZNSt3__16vectorINS_12basic_stringIcNS_11char_traitsIcEENS_9allocatorIcEEEENS4_IS6_EEED2B8ne190000Ev(ptr noundef nonnull align 8 dereferenceable(24) %4) #23
  ret void
}

; Function Attrs: mustprogress nounwind uwtable
define internal void @"_ZZN7mitsuba3xml6detailL32init_xml_parse_context_from_fileERNS1_15XMLParseContextERKNS_10filesystem4pathENSt3__16vectorINS8_5tupleIJNS8_12basic_stringIcNS8_11char_traitsIcEENS8_9allocatorIcEEEESG_bEEENSE_ISH_EEEEbEN3$_0D2Ev"(ptr noundef nonnull align 8 dereferenceable(32) %0) unnamed_addr #0 align 2 {
  %2 = alloca ptr, align 8
  store ptr %0, ptr %2, align 8
  %3 = load ptr, ptr %2, align 8
  %4 = getelementptr inbounds %class.anon.199, ptr %3, i32 0, i32 0
  call void @_ZN7mitsuba10filesystem4pathD2Ev(ptr noundef nonnull align 8 dereferenceable(25) %4) #23
  ret void
}